target datalayout = "e-m:e-p270:32:32-p271:32:32-p272:64:64-i64:64-i128:128-f80:128-n8:16:32:64-S128"
target triple = "x86_64-pc-linux-gnu"

%struct.SDL_VideoDevice = type { ptr, ptr, ptr, ptr, ptr, ptr, ptr, ptr, ptr, ptr, ptr, ptr, ptr, ptr, ptr, ptr, ptr, ptr, ptr, ptr, ptr, ptr, ptr, ptr, ptr, ptr, ptr, ptr, ptr, ptr, ptr, ptr, ptr, ptr, ptr, ptr, ptr, ptr, ptr, ptr, ptr, ptr, ptr, ptr, ptr, ptr, ptr, ptr, ptr, ptr, ptr, ptr, ptr, ptr, ptr, ptr, ptr, ptr, ptr, ptr, ptr, ptr, ptr, ptr, ptr, ptr, ptr, ptr, ptr, ptr, ptr, ptr, ptr, ptr, ptr, ptr, ptr, ptr, ptr, ptr, ptr, ptr, ptr, ptr, ptr, ptr, ptr, ptr, ptr, ptr, ptr, ptr, ptr, ptr, ptr, ptr, ptr, i64, i8, i8, i8, ptr, i32, ptr, %struct.SDL_Rect, ptr, ptr, i32, ptr, ptr, ptr, ptr, i64, ptr, i8, i32, i32, %struct.anon, ptr, ptr, ptr, ptr, ptr, ptr, %struct.SDL_AtomicInt, %struct.SDL_AtomicInt, i8, %struct.anon.0, ptr, ptr, ptr, ptr, ptr }
%struct.SDL_Rect = type { i32, i32, i32, i32 }
%struct.anon = type { i32, i32, i32, i32, i32, i32, i32, i32, i32, i32, i32, i32, i32, i32, i32, i32, i32, i32, i32, i32, i32, i32, i32, i32, i32, i32, i32, i32, i32, [256 x i8], ptr }
%struct.SDL_AtomicInt = type { i32 }
%struct.anon.0 = type { ptr, ptr, i32, [256 x i8], ptr }
%struct.SDL_GLDriverData = type { i32, i32, i8, i8, i8, i8, i8, i8, %struct.anon.1, i32, ptr, ptr, ptr, ptr, ptr, ptr, ptr, ptr, ptr, ptr, ptr, ptr, ptr, ptr, ptr }
%struct.anon.1 = type { i32, i32 }
%struct.SDL_VideoData = type { ptr, ptr, i32, ptr, i64, i32, ptr, i32, i64, i64, %struct.X11_ClipboardData, %struct.X11_ClipboardData, ptr, i64, %struct.X11_SettingsData, i8, %struct.anon.2, [256 x i32], i8, i8, i8, i64, i8, %struct.SDL_Point, i32, ptr, i32, i8, i32, %struct.anon.3, i8, i64, ptr, ptr, i8, i8, i8 }
%struct.X11_ClipboardData = type { ptr, ptr, ptr, i64, i32 }
%struct.X11_SettingsData = type { ptr }
%struct.anon.2 = type { i64, i64, i64, i64, i64, i64, i64, i64, i64, i64, i64, i64, i64, i64, i64, i64, i64, i64, i64, i64, i64, i64, i64, i64, i64, i64, i64, i64, i64, i64, i64, i64, i64, i64, i64, i64, i64, i64, i64, i64, i64, i64, i64, i64, i64, i64, i64, i64, i64, i64, i64, i64, i64 }
%struct.SDL_Point = type { i32, i32 }
%struct.anon.3 = type { ptr, i32, i32, i32, i16, i32, i32 }
%struct.SDL_Window = type { i32, ptr, ptr, i32, i32, i32, i32, i32, i32, i32, i32, float, float, i32, i32, i64, i64, float, i8, i8, i32, i32, %struct.SDL_Rect, %struct.SDL_Rect, %struct.SDL_Rect, i8, i8, i8, %struct.SDL_DisplayMode, %struct.SDL_DisplayMode, %struct.SDL_HDROutputProperties, float, ptr, i8, i8, i8, i8, i8, i8, i8, i8, i8, i32, i32, i32, i32, %struct.SDL_Rect, i32, i8, %struct.SDL_Rect, i32, %struct.SDL_Rect, ptr, ptr, i32, float, i32, i32, ptr, ptr, ptr, ptr, ptr, ptr, ptr, ptr, ptr }
%struct.SDL_DisplayMode = type { i32, i32, i32, i32, float, float, i32, i32, ptr }
%struct.SDL_HDROutputProperties = type { float, float }
%struct.SDL_WindowData = type { ptr, i64, ptr, i64, i8, %struct.XShmSegmentInfo, ptr, ptr, ptr, i8, i32, i32, i32, i32, i8, i8, i8, i64, i32, i64, i8, %struct.SDL_Point, %struct.XConfigureEvent, %struct.XConfigureEvent, ptr, i64, i64, i64, i8, i64, ptr, i8, [4 x i64], %struct.SDL_Rect, i64, %struct._XSyncValue, i8, %struct.SDL_Rect, %struct.SDL_DisplayMode, i32, i32, i8, i8, i8, i8, i8, i8, i8, i8, i32, %struct.XPoint, ptr, ptr, i32, i32, i8 }
%struct.XShmSegmentInfo = type { i64, i32, ptr, i32 }
%struct.XConfigureEvent = type { i32, i64, i32, ptr, i64, i64, i32, i32, i32, i32, i32, i64, i32 }
%struct._XSyncValue = type { i32, i32 }
%struct.XPoint = type { i16, i16 }

@.str.23 = private unnamed_addr constant [46 x i8] c"Negative swap interval unsupported in this GL\00", align 1
@swapinterval = internal global i32 0, align 4
@.str.24 = private unnamed_addr constant [27 x i8] c"glXSwapIntervalMESA failed\00", align 1
@.str.25 = private unnamed_addr constant [26 x i8] c"glXSwapIntervalSGI failed\00", align 1
@.str.26 = private unnamed_addr constant [32 x i8] c"That operation is not supported\00", align 1

; Function Attrs: nounwind uwtable
define hidden zeroext i1 @X11_GL_SetSwapInterval(ptr noundef %0, i32 noundef %1) #0 {
  %3 = alloca i1, align 1
  %4 = alloca ptr, align 8
  %5 = alloca i32, align 4
  %6 = alloca i8, align 1
  %7 = alloca i32, align 4
  %8 = alloca ptr, align 8
  %9 = alloca ptr, align 8
  %10 = alloca i64, align 8
  %11 = alloca i32, align 4
  %12 = alloca i32, align 4
  %13 = alloca i32, align 4
  store ptr %0, ptr %4, align 8
  store i32 %1, ptr %5, align 4
  call void @llvm.lifetime.start.p0(i64 1, ptr %6) #5
  store i8 0, ptr %6, align 1
  %14 = load i32, ptr %5, align 4
  %15 = icmp slt i32 %14, 0
  br i1 %15, label %16, label %25

16:                                               ; preds = %2
  %17 = load ptr, ptr %4, align 8
  %18 = getelementptr inbounds nuw %struct.SDL_VideoDevice, ptr %17, i32 0, i32 129
  %19 = load ptr, ptr %18, align 8
  %20 = getelementptr inbounds nuw %struct.SDL_GLDriverData, ptr %19, i32 0, i32 4
  %21 = load i8, ptr %20, align 2, !range !3, !noundef !4
  %22 = trunc i8 %21 to i1
  br i1 %22, label %25, label %23

23:                                               ; preds = %16
  %24 = call zeroext i1 (ptr, ...) @SDL_SetError_REAL(ptr noundef @.str.23)
  store i1 %24, ptr %3, align 1
  store i32 1, ptr %7, align 4
  br label %117

25:                                               ; preds = %16, %2
  %26 = load ptr, ptr %4, align 8
  %27 = getelementptr inbounds nuw %struct.SDL_VideoDevice, ptr %26, i32 0, i32 129
  %28 = load ptr, ptr %27, align 8
  %29 = getelementptr inbounds nuw %struct.SDL_GLDriverData, ptr %28, i32 0, i32 21
  %30 = load ptr, ptr %29, align 8
  %31 = icmp ne ptr %30, null
  br i1 %31, label %32, label %63

32:                                               ; preds = %25
  call void @llvm.lifetime.start.p0(i64 8, ptr %8) #5
  %33 = load ptr, ptr %4, align 8
  %34 = getelementptr inbounds nuw %struct.SDL_VideoDevice, ptr %33, i32 0, i32 128
  %35 = load ptr, ptr %34, align 8
  %36 = getelementptr inbounds nuw %struct.SDL_VideoData, ptr %35, i32 0, i32 0
  %37 = load ptr, ptr %36, align 8
  store ptr %37, ptr %8, align 8
  call void @llvm.lifetime.start.p0(i64 8, ptr %9) #5
  %38 = call ptr @SDL_GL_GetCurrentWindow_REAL()
  %39 = getelementptr inbounds nuw %struct.SDL_Window, ptr %38, i32 0, i32 59
  %40 = load ptr, ptr %39, align 8
  store ptr %40, ptr %9, align 8
  call void @llvm.lifetime.start.p0(i64 8, ptr %10) #5
  %41 = load ptr, ptr %9, align 8
  %42 = getelementptr inbounds nuw %struct.SDL_WindowData, ptr %41, i32 0, i32 1
  %43 = load i64, ptr %42, align 8
  store i64 %43, ptr %10, align 8
  call void @llvm.lifetime.start.p0(i64 4, ptr %11) #5
  store i32 0, ptr %11, align 4
  %44 = load ptr, ptr %4, align 8
  %45 = call zeroext i1 @X11_GL_GetSwapInterval(ptr noundef %44, ptr noundef %11)
  %46 = load ptr, ptr %4, align 8
  %47 = getelementptr inbounds nuw %struct.SDL_VideoDevice, ptr %46, i32 0, i32 129
  %48 = load ptr, ptr %47, align 8
  %49 = getelementptr inbounds nuw %struct.SDL_GLDriverData, ptr %48, i32 0, i32 21
  %50 = load ptr, ptr %49, align 8
  %51 = load ptr, ptr %8, align 8
  %52 = load i64, ptr %10, align 8
  %53 = load i32, ptr %11, align 4
  call void %50(ptr noundef %51, i64 noundef %52, i32 noundef %53)
  %54 = load ptr, ptr %4, align 8
  %55 = getelementptr inbounds nuw %struct.SDL_VideoDevice, ptr %54, i32 0, i32 129
  %56 = load ptr, ptr %55, align 8
  %57 = getelementptr inbounds nuw %struct.SDL_GLDriverData, ptr %56, i32 0, i32 21
  %58 = load ptr, ptr %57, align 8
  %59 = load ptr, ptr %8, align 8
  %60 = load i64, ptr %10, align 8
  %61 = load i32, ptr %5, align 4
  call void %58(ptr noundef %59, i64 noundef %60, i32 noundef %61)
  store i8 1, ptr %6, align 1
  %62 = load i32, ptr %5, align 4
  store i32 %62, ptr @swapinterval, align 4
  call void @llvm.lifetime.end.p0(i64 4, ptr %11) #5
  call void @llvm.lifetime.end.p0(i64 8, ptr %10) #5
  call void @llvm.lifetime.end.p0(i64 8, ptr %9) #5
  call void @llvm.lifetime.end.p0(i64 8, ptr %8) #5
  br label %113

63:                                               ; preds = %25
  %64 = load ptr, ptr %4, align 8
  %65 = getelementptr inbounds nuw %struct.SDL_VideoDevice, ptr %64, i32 0, i32 129
  %66 = load ptr, ptr %65, align 8
  %67 = getelementptr inbounds nuw %struct.SDL_GLDriverData, ptr %66, i32 0, i32 23
  %68 = load ptr, ptr %67, align 8
  %69 = icmp ne ptr %68, null
  br i1 %69, label %70, label %86

70:                                               ; preds = %63
  call void @llvm.lifetime.start.p0(i64 4, ptr %12) #5
  %71 = load ptr, ptr %4, align 8
  %72 = getelementptr inbounds nuw %struct.SDL_VideoDevice, ptr %71, i32 0, i32 129
  %73 = load ptr, ptr %72, align 8
  %74 = getelementptr inbounds nuw %struct.SDL_GLDriverData, ptr %73, i32 0, i32 23
  %75 = load ptr, ptr %74, align 8
  %76 = load i32, ptr %5, align 4
  %77 = call i32 %75(i32 noundef %76)
  store i32 %77, ptr %12, align 4
  %78 = load i32, ptr %12, align 4
  %79 = icmp eq i32 %78, 0
  br i1 %79, label %80, label %82

80:                                               ; preds = %70
  %81 = load i32, ptr %5, align 4
  store i32 %81, ptr @swapinterval, align 4
  store i8 1, ptr %6, align 1
  br label %85

82:                                               ; preds = %70
  %83 = call zeroext i1 (ptr, ...) @SDL_SetError_REAL(ptr noundef @.str.24)
  %84 = zext i1 %83 to i8
  store i8 %84, ptr %6, align 1
  br label %85

85:                                               ; preds = %82, %80
  call void @llvm.lifetime.end.p0(i64 4, ptr %12) #5
  br label %112

86:                                               ; preds = %63
  %87 = load ptr, ptr %4, align 8
  %88 = getelementptr inbounds nuw %struct.SDL_VideoDevice, ptr %87, i32 0, i32 129
  %89 = load ptr, ptr %88, align 8
  %90 = getelementptr inbounds nuw %struct.SDL_GLDriverData, ptr %89, i32 0, i32 22
  %91 = load ptr, ptr %90, align 8
  %92 = icmp ne ptr %91, null
  br i1 %92, label %93, label %109

93:                                               ; preds = %86
  call void @llvm.lifetime.start.p0(i64 4, ptr %13) #5
  %94 = load ptr, ptr %4, align 8
  %95 = getelementptr inbounds nuw %struct.SDL_VideoDevice, ptr %94, i32 0, i32 129
  %96 = load ptr, ptr %95, align 8
  %97 = getelementptr inbounds nuw %struct.SDL_GLDriverData, ptr %96, i32 0, i32 22
  %98 = load ptr, ptr %97, align 8
  %99 = load i32, ptr %5, align 4
  %100 = call i32 %98(i32 noundef %99)
  store i32 %100, ptr %13, align 4
  %101 = load i32, ptr %13, align 4
  %102 = icmp eq i32 %101, 0
  br i1 %102, label %103, label %105

103:                                              ; preds = %93
  %104 = load i32, ptr %5, align 4
  store i32 %104, ptr @swapinterval, align 4
  store i8 1, ptr %6, align 1
  br label %108

105:                                              ; preds = %93
  %106 = call zeroext i1 (ptr, ...) @SDL_SetError_REAL(ptr noundef @.str.25)
  %107 = zext i1 %106 to i8
  store i8 %107, ptr %6, align 1
  br label %108

108:                                              ; preds = %105, %103
  call void @llvm.lifetime.end.p0(i64 4, ptr %13) #5
  br label %111

109:                                              ; preds = %86
  %110 = call zeroext i1 (ptr, ...) @SDL_SetError_REAL(ptr noundef @.str.26)
  store i1 %110, ptr %3, align 1
  store i32 1, ptr %7, align 4
  br label %117

111:                                              ; preds = %108
  br label %112

112:                                              ; preds = %111, %85
  br label %113

113:                                              ; preds = %112, %32
  br label %114

114:                                              ; preds = %113
  %115 = load i8, ptr %6, align 1, !range !3, !noundef !4
  %116 = trunc i8 %115 to i1
  store i1 %116, ptr %3, align 1
  store i32 1, ptr %7, align 4
  br label %117

117:                                              ; preds = %114, %109, %23
  call void @llvm.lifetime.end.p0(i64 1, ptr %6) #5
  %118 = load i1, ptr %3, align 1
  ret i1 %118
}