; Function Attrs: nounwind uwtable
define hidden zeroext i1 @X11_GL_SetSwapInterval(ptr noundef readonly captures(none) %0, i32 noundef %1) local_unnamed_addr #0 {
  %3 = alloca i32, align 4
  %4 = icmp slt i32 %1, 0
  %5 = getelementptr inbounds nuw i8, ptr %0, i64 1664
  %6 = load ptr, ptr %5, align 8
  br i1 %4, label %7, label %._crit_edge

7:                                                ; preds = %2
  %8 = getelementptr inbounds nuw i8, ptr %6, i64 10
  %9 = load i8, ptr %8, align 2, !range !6, !noundef !7
  %10 = trunc nuw i8 %9 to i1
  br i1 %10, label %._crit_edge, label %11

11:                                               ; preds = %7
  %12 = tail call zeroext i1 (ptr, ...) @SDL_SetError_REAL(ptr noundef nonnull @.str.23) #6
  br label %53

._crit_edge:                                      ; preds = %2, %7
  %13 = getelementptr inbounds nuw i8, ptr %6, i64 120
  %14 = load ptr, ptr %13, align 8
  %.not = icmp eq ptr %14, null
  br i1 %.not, label %33, label %15

15:                                               ; preds = %._crit_edge
  %16 = getelementptr inbounds nuw i8, ptr %0, i64 1664
  %17 = getelementptr inbounds nuw i8, ptr %0, i64 1656
  %18 = load ptr, ptr %17, align 8
  %19 = load ptr, ptr %18, align 8
  %20 = tail call ptr @SDL_GL_GetCurrentWindow_REAL() #6
  %21 = getelementptr inbounds nuw i8, ptr %20, i64 392
  %22 = load ptr, ptr %21, align 8
  %23 = getelementptr inbounds nuw i8, ptr %22, i64 8
  %24 = load i64, ptr %23, align 8
  call void @llvm.lifetime.start.p0(i64 4, ptr nonnull %3) #6
  store i32 0, ptr %3, align 4
  %25 = call zeroext i1 @X11_GL_GetSwapInterval(ptr noundef nonnull %0, ptr noundef nonnull %3)
  %26 = load ptr, ptr %16, align 8
  %27 = getelementptr inbounds nuw i8, ptr %26, i64 120
  %28 = load ptr, ptr %27, align 8
  %29 = load i32, ptr %3, align 4
  tail call void %28(ptr noundef %19, i64 noundef %24, i32 noundef %29) #6
  %30 = load ptr, ptr %16, align 8
  %31 = getelementptr inbounds nuw i8, ptr %30, i64 120
  %32 = load ptr, ptr %31, align 8
  tail call void %32(ptr noundef %19, i64 noundef %24, i32 noundef %1) #6
  store i32 %1, ptr @swapinterval, align 4
  call void @llvm.lifetime.end.p0(i64 4, ptr nonnull %3) #6
  br label %53

33:                                               ; preds = %._crit_edge
  %34 = getelementptr inbounds nuw i8, ptr %6, i64 136
  %35 = load ptr, ptr %34, align 8
  %.not28 = icmp eq ptr %35, null
  br i1 %.not28, label %42, label %36

36:                                               ; preds = %33
  %37 = tail call i32 %35(i32 noundef %1) #6
  %38 = icmp eq i32 %37, 0
  br i1 %38, label %39, label %40

39:                                               ; preds = %36
  store i32 %1, ptr @swapinterval, align 4
  br label %53

40:                                               ; preds = %36
  %41 = tail call zeroext i1 (ptr, ...) @SDL_SetError_REAL(ptr noundef nonnull @.str.24) #6
  br label %53

42:                                               ; preds = %33
  %43 = getelementptr inbounds nuw i8, ptr %6, i64 128
  %44 = load ptr, ptr %43, align 8
  %.not29 = icmp eq ptr %44, null
  br i1 %.not29, label %51, label %45

45:                                               ; preds = %42
  %46 = tail call i32 %44(i32 noundef %1) #6
  %47 = icmp eq i32 %46, 0
  br i1 %47, label %48, label %49

48:                                               ; preds = %45
  store i32 %1, ptr @swapinterval, align 4
  br label %53

49:                                               ; preds = %45
  %50 = tail call zeroext i1 (ptr, ...) @SDL_SetError_REAL(ptr noundef nonnull @.str.25) #6
  br label %53

51:                                               ; preds = %42
  %52 = tail call zeroext i1 (ptr, ...) @SDL_SetError_REAL(ptr noundef nonnull @.str.26) #6
  br label %53

53:                                               ; preds = %15, %40, %39, %49, %48, %51, %11
  %.0 = phi i1 [ %52, %51 ], [ %12, %11 ], [ true, %15 ], [ true, %39 ], [ %41, %40 ], [ true, %48 ], [ %50, %49 ]
  ret i1 %.0
}